target datalayout = "e-m:e-p270:32:32-p271:32:32-p272:64:64-i64:64-i128:128-f80:128-n8:16:32:64-S128"
target triple = "x86_64-pc-linux-gnu"

%struct.addrinfo = type { i32, i32, i32, i32, i32, ptr, ptr, ptr }
%struct.TCPContext = type { ptr, i32, i32, ptr, ptr, i32, i32, i32, i32, i32, i32, i32 }

@.str.10 = private unnamed_addr constant [55 x i8] c"Failed to getaddrinfo local addr: %s port: %s err: %s\0A\00", align 1
@.str.11 = private unnamed_addr constant [18 x i8] c"bind local failed\00", align 1
@.str.12 = private unnamed_addr constant [22 x i8] c"setsockopt(SO_RCVBUF)\00", align 1
@.str.13 = private unnamed_addr constant [22 x i8] c"setsockopt(SO_SNDBUF)\00", align 1
@.str.14 = private unnamed_addr constant [24 x i8] c"setsockopt(TCP_NODELAY)\00", align 1
@.str.15 = private unnamed_addr constant [23 x i8] c"setsockopt(TCP_MAXSEG)\00", align 1

; Function Attrs: nounwind uwtable
define internal i32 @customize_fd(ptr noundef %0, i32 noundef %1, i32 noundef %2) #0 {
  %4 = alloca i32, align 4
  %5 = alloca ptr, align 8
  %6 = alloca i32, align 4
  %7 = alloca i32, align 4
  %8 = alloca ptr, align 8
  %9 = alloca %struct.addrinfo, align 8
  %10 = alloca ptr, align 8
  %11 = alloca ptr, align 8
  %12 = alloca i32, align 4
  %13 = alloca i32, align 4
  store ptr %0, ptr %5, align 8, !tbaa !58
  store i32 %1, ptr %6, align 4, !tbaa !11
  store i32 %2, ptr %7, align 4, !tbaa !11
  call void @llvm.lifetime.start.p0(i64 8, ptr %8) #9
  %14 = load ptr, ptr %5, align 8, !tbaa !58
  store ptr %14, ptr %8, align 8, !tbaa !19
  %15 = load ptr, ptr %8, align 8, !tbaa !19
  %16 = getelementptr inbounds nuw %struct.TCPContext, ptr %15, i32 0, i32 4
  %17 = load ptr, ptr %16, align 8, !tbaa !25
  %18 = icmp ne ptr %17, null
  br i1 %18, label %24, label %19

19:                                               ; preds = %3
  %20 = load ptr, ptr %8, align 8, !tbaa !19
  %21 = getelementptr inbounds nuw %struct.TCPContext, ptr %20, i32 0, i32 3
  %22 = load ptr, ptr %21, align 8, !tbaa !24
  %23 = icmp ne ptr %22, null
  br i1 %23, label %24, label %81

24:                                               ; preds = %19, %3
  call void @llvm.lifetime.start.p0(i64 48, ptr %9) #9
  call void @llvm.memset.p0.i64(ptr align 8 %9, i8 0, i64 48, i1 false)
  call void @llvm.lifetime.start.p0(i64 8, ptr %10) #9
  call void @llvm.lifetime.start.p0(i64 8, ptr %11) #9
  call void @llvm.lifetime.start.p0(i64 4, ptr %12) #9
  %25 = load i32, ptr %7, align 4, !tbaa !11
  %26 = getelementptr inbounds nuw %struct.addrinfo, ptr %9, i32 0, i32 1
  store i32 %25, ptr %26, align 4, !tbaa !30
  %27 = getelementptr inbounds nuw %struct.addrinfo, ptr %9, i32 0, i32 2
  store i32 1, ptr %27, align 8, !tbaa !34
  %28 = load ptr, ptr %8, align 8, !tbaa !19
  %29 = getelementptr inbounds nuw %struct.TCPContext, ptr %28, i32 0, i32 4
  %30 = load ptr, ptr %29, align 8, !tbaa !25
  %31 = load ptr, ptr %8, align 8, !tbaa !19
  %32 = getelementptr inbounds nuw %struct.TCPContext, ptr %31, i32 0, i32 3
  %33 = load ptr, ptr %32, align 8, !tbaa !24
  %34 = call i32 @getaddrinfo(ptr noundef %30, ptr noundef %33, ptr noundef %9, ptr noundef %10)
  store i32 %34, ptr %12, align 4, !tbaa !11
  %35 = load i32, ptr %12, align 4, !tbaa !11
  %36 = icmp ne i32 %35, 0
  br i1 %36, label %37, label %48

37:                                               ; preds = %24
  %38 = load ptr, ptr %5, align 8, !tbaa !58
  %39 = load ptr, ptr %8, align 8, !tbaa !19
  %40 = getelementptr inbounds nuw %struct.TCPContext, ptr %39, i32 0, i32 4
  %41 = load ptr, ptr %40, align 8, !tbaa !25
  %42 = load ptr, ptr %8, align 8, !tbaa !19
  %43 = getelementptr inbounds nuw %struct.TCPContext, ptr %42, i32 0, i32 3
  %44 = load ptr, ptr %43, align 8, !tbaa !24
  %45 = load i32, ptr %12, align 4, !tbaa !11
  %46 = call ptr @gai_strerror(i32 noundef %45) #9
  call void (ptr, i32, ptr, ...) @av_log(ptr noundef %38, i32 noundef 16, ptr noundef @.str.10, ptr noundef %41, ptr noundef %44, ptr noundef %46)
  %47 = load i32, ptr %12, align 4, !tbaa !11
  store i32 %47, ptr %4, align 4
  store i32 1, ptr %13, align 4
  br label %78

48:                                               ; preds = %24
  %49 = load ptr, ptr %10, align 8, !tbaa !37
  store ptr %49, ptr %11, align 8, !tbaa !37
  br label %50

50:                                               ; preds = %69, %48
  %51 = load ptr, ptr %11, align 8, !tbaa !37
  %52 = icmp ne ptr %51, null
  br i1 %52, label %53, label %70

53:                                               ; preds = %50
  %54 = load i32, ptr %6, align 4, !tbaa !11
  %55 = load ptr, ptr %11, align 8, !tbaa !37
  %56 = getelementptr inbounds nuw %struct.addrinfo, ptr %55, i32 0, i32 5
  %57 = load ptr, ptr %56, align 8, !tbaa !38
  %58 = load ptr, ptr %11, align 8, !tbaa !37
  %59 = getelementptr inbounds nuw %struct.addrinfo, ptr %58, i32 0, i32 4
  %60 = load i32, ptr %59, align 8, !tbaa !49
  %61 = call i32 @bind(i32 noundef %54, ptr noundef %57, i32 noundef %60) #9
  store i32 %61, ptr %12, align 4, !tbaa !11
  %62 = load i32, ptr %12, align 4, !tbaa !11
  %63 = icmp ne i32 %62, 0
  br i1 %63, label %64, label %68

64:                                               ; preds = %53
  %65 = load ptr, ptr %11, align 8, !tbaa !37
  %66 = getelementptr inbounds nuw %struct.addrinfo, ptr %65, i32 0, i32 7
  %67 = load ptr, ptr %66, align 8, !tbaa !46
  store ptr %67, ptr %11, align 8, !tbaa !37
  br label %69

68:                                               ; preds = %53
  br label %70

69:                                               ; preds = %64
  br label %50, !llvm.loop !59

70:                                               ; preds = %68, %50
  %71 = load ptr, ptr %10, align 8, !tbaa !37
  call void @freeaddrinfo(ptr noundef %71) #9
  %72 = load i32, ptr %12, align 4, !tbaa !11
  %73 = icmp ne i32 %72, 0
  br i1 %73, label %74, label %77

74:                                               ; preds = %70
  %75 = load ptr, ptr %5, align 8, !tbaa !58
  call void @ff_log_net_error(ptr noundef %75, i32 noundef 16, ptr noundef @.str.11)
  %76 = load i32, ptr %12, align 4, !tbaa !11
  store i32 %76, ptr %4, align 4
  store i32 1, ptr %13, align 4
  br label %78

77:                                               ; preds = %70
  store i32 0, ptr %13, align 4
  br label %78

78:                                               ; preds = %77, %74, %37
  call void @llvm.lifetime.end.p0(i64 4, ptr %12) #9
  call void @llvm.lifetime.end.p0(i64 8, ptr %11) #9
  call void @llvm.lifetime.end.p0(i64 8, ptr %10) #9
  call void @llvm.lifetime.end.p0(i64 48, ptr %9) #9
  %79 = load i32, ptr %13, align 4
  switch i32 %79, label %138 [
    i32 0, label %80
  ]

80:                                               ; preds = %78
  br label %81

81:                                               ; preds = %80, %19
  %82 = load ptr, ptr %8, align 8, !tbaa !19
  %83 = getelementptr inbounds nuw %struct.TCPContext, ptr %82, i32 0, i32 8
  %84 = load i32, ptr %83, align 4, !tbaa !60
  %85 = icmp sgt i32 %84, 0
  br i1 %85, label %86, label %95

86:                                               ; preds = %81
  %87 = load i32, ptr %6, align 4, !tbaa !11
  %88 = load ptr, ptr %8, align 8, !tbaa !19
  %89 = getelementptr inbounds nuw %struct.TCPContext, ptr %88, i32 0, i32 8
  %90 = call i32 @setsockopt(i32 noundef %87, i32 noundef 1, i32 noundef 8, ptr noundef %89, i32 noundef 4) #9
  %91 = icmp ne i32 %90, 0
  br i1 %91, label %92, label %94

92:                                               ; preds = %86
  %93 = load ptr, ptr %5, align 8, !tbaa !58
  call void @ff_log_net_error(ptr noundef %93, i32 noundef 24, ptr noundef @.str.12)
  br label %94

94:                                               ; preds = %92, %86
  br label %95

95:                                               ; preds = %94, %81
  %96 = load ptr, ptr %8, align 8, !tbaa !19
  %97 = getelementptr inbounds nuw %struct.TCPContext, ptr %96, i32 0, i32 9
  %98 = load i32, ptr %97, align 8, !tbaa !61
  %99 = icmp sgt i32 %98, 0
  br i1 %99, label %100, label %109

100:                                              ; preds = %95
  %101 = load i32, ptr %6, align 4, !tbaa !11
  %102 = load ptr, ptr %8, align 8, !tbaa !19
  %103 = getelementptr inbounds nuw %struct.TCPContext, ptr %102, i32 0, i32 9
  %104 = call i32 @setsockopt(i32 noundef %101, i32 noundef 1, i32 noundef 7, ptr noundef %103, i32 noundef 4) #9
  %105 = icmp ne i32 %104, 0
  br i1 %105, label %106, label %108

106:                                              ; preds = %100
  %107 = load ptr, ptr %5, align 8, !tbaa !58
  call void @ff_log_net_error(ptr noundef %107, i32 noundef 24, ptr noundef @.str.13)
  br label %108

108:                                              ; preds = %106, %100
  br label %109

109:                                              ; preds = %108, %95
  %110 = load ptr, ptr %8, align 8, !tbaa !19
  %111 = getelementptr inbounds nuw %struct.TCPContext, ptr %110, i32 0, i32 10
  %112 = load i32, ptr %111, align 4, !tbaa !28
  %113 = icmp sgt i32 %112, 0
  br i1 %113, label %114, label %123

114:                                              ; preds = %109
  %115 = load i32, ptr %6, align 4, !tbaa !11
  %116 = load ptr, ptr %8, align 8, !tbaa !19
  %117 = getelementptr inbounds nuw %struct.TCPContext, ptr %116, i32 0, i32 10
  %118 = call i32 @setsockopt(i32 noundef %115, i32 noundef 6, i32 noundef 1, ptr noundef %117, i32 noundef 4) #9
  %119 = icmp ne i32 %118, 0
  br i1 %119, label %120, label %122

120:                                              ; preds = %114
  %121 = load ptr, ptr %5, align 8, !tbaa !58
  call void @ff_log_net_error(ptr noundef %121, i32 noundef 24, ptr noundef @.str.14)
  br label %122

122:                                              ; preds = %120, %114
  br label %123

123:                                              ; preds = %122, %109
  %124 = load ptr, ptr %8, align 8, !tbaa !19
  %125 = getelementptr inbounds nuw %struct.TCPContext, ptr %124, i32 0, i32 11
  %126 = load i32, ptr %125, align 8, !tbaa !62
  %127 = icmp sgt i32 %126, 0
  br i1 %127, label %128, label %137

128:                                              ; preds = %123
  %129 = load i32, ptr %6, align 4, !tbaa !11
  %130 = load ptr, ptr %8, align 8, !tbaa !19
  %131 = getelementptr inbounds nuw %struct.TCPContext, ptr %130, i32 0, i32 11
  %132 = call i32 @setsockopt(i32 noundef %129, i32 noundef 6, i32 noundef 2, ptr noundef %131, i32 noundef 4) #9
  %133 = icmp ne i32 %132, 0
  br i1 %133, label %134, label %136

134:                                              ; preds = %128
  %135 = load ptr, ptr %5, align 8, !tbaa !58
  call void @ff_log_net_error(ptr noundef %135, i32 noundef 24, ptr noundef @.str.15)
  br label %136

136:                                              ; preds = %134, %128
  br label %137

137:                                              ; preds = %136, %123
  store i32 0, ptr %4, align 4
  store i32 1, ptr %13, align 4
  br label %138

138:                                              ; preds = %137, %78
  call void @llvm.lifetime.end.p0(i64 8, ptr %8) #9
  %139 = load i32, ptr %4, align 4
  ret i32 %139
}