; Function Attrs: nounwind uwtable
define internal i32 @customize_fd(ptr noundef %0, i32 noundef %1, i32 noundef %2) #0 {
  %4 = alloca %struct.addrinfo, align 8
  %5 = alloca ptr, align 8
  %6 = getelementptr inbounds nuw i8, ptr %0, i64 24
  %7 = load ptr, ptr %6, align 8, !tbaa !20
  %.not = icmp eq ptr %7, null
  %8 = getelementptr inbounds nuw i8, ptr %0, i64 16
  %9 = load ptr, ptr %8, align 8, !tbaa !19
  %.not46 = icmp eq ptr %9, null
  %or.cond = select i1 %.not, i1 %.not46, i1 false
  br i1 %or.cond, label %28, label %._crit_edge65

._crit_edge65:                                    ; preds = %3
  call void @llvm.lifetime.start.p0(i64 48, ptr nonnull %4) #12
  call void @llvm.memset.p0.i64(ptr noundef nonnull align 8 dereferenceable(48) %4, i8 0, i64 48, i1 false)
  call void @llvm.lifetime.start.p0(i64 8, ptr nonnull %5) #12
  %10 = getelementptr inbounds nuw i8, ptr %4, i64 4
  store i32 %2, ptr %10, align 4, !tbaa !25
  %11 = getelementptr inbounds nuw i8, ptr %4, i64 8
  store i32 1, ptr %11, align 8, !tbaa !29
  %12 = call i32 @getaddrinfo(ptr noundef %7, ptr noundef %9, ptr noundef nonnull %4, ptr noundef nonnull %5) #12
  %.not47 = icmp eq i32 %12, 0
  br i1 %.not47, label %.preheader, label %13

.preheader:                                       ; preds = %._crit_edge65
  %.03961 = load ptr, ptr %5, align 8, !tbaa !33
  %.not4862 = icmp eq ptr %.03961, null
  br i1 %.not4862, label %.thread57, label %.lr.ph

13:                                               ; preds = %._crit_edge65
  %14 = getelementptr inbounds nuw i8, ptr %0, i64 16
  %15 = load ptr, ptr %6, align 8, !tbaa !20
  %16 = load ptr, ptr %14, align 8, !tbaa !19
  %17 = call ptr @gai_strerror(i32 noundef %12) #12
  call void (ptr, i32, ptr, ...) @av_log(ptr noundef nonnull %0, i32 noundef 16, ptr noundef nonnull @.str.10, ptr noundef %15, ptr noundef %16, ptr noundef %17) #12
  br label %27

18:                                               ; preds = %.lr.ph
  %19 = getelementptr inbounds nuw i8, ptr %.03963, i64 40
  %.039 = load ptr, ptr %19, align 8, !tbaa !33
  %.not48 = icmp eq ptr %.039, null
  br i1 %.not48, label %26, label %.lr.ph, !llvm.loop !50

.lr.ph:                                           ; preds = %.preheader, %18
  %.03963 = phi ptr [ %.039, %18 ], [ %.03961, %.preheader ]
  %20 = getelementptr inbounds nuw i8, ptr %.03963, i64 24
  %21 = load ptr, ptr %20, align 8, !tbaa !34
  %22 = getelementptr inbounds nuw i8, ptr %.03963, i64 16
  %23 = load i32, ptr %22, align 8, !tbaa !43
  %24 = call i32 @bind(i32 noundef %1, ptr noundef %21, i32 noundef %23) #12
  %.not49 = icmp eq i32 %24, 0
  br i1 %.not49, label %.thread, label %18

.thread:                                          ; preds = %.lr.ph
  %25 = load ptr, ptr %5, align 8, !tbaa !33
  br label %.thread57

26:                                               ; preds = %18
  %.pre66 = load ptr, ptr %5, align 8, !tbaa !33
  call void @freeaddrinfo(ptr noundef %.pre66) #12
  call void @ff_log_net_error(ptr noundef %0, i32 noundef 16, ptr noundef nonnull @.str.11) #12
  br label %27

.thread57:                                        ; preds = %.preheader, %.thread
  %.sink = phi ptr [ %25, %.thread ], [ null, %.preheader ]
  call void @freeaddrinfo(ptr noundef %.sink) #12
  call void @llvm.lifetime.end.p0(i64 8, ptr nonnull %5) #12
  call void @llvm.lifetime.end.p0(i64 48, ptr nonnull %4) #12
  br label %28

27:                                               ; preds = %26, %13
  %.040 = phi i32 [ %12, %13 ], [ %24, %26 ]
  call void @llvm.lifetime.end.p0(i64 8, ptr nonnull %5) #12
  call void @llvm.lifetime.end.p0(i64 48, ptr nonnull %4) #12
  br label %56

28:                                               ; preds = %3, %.thread57
  %29 = getelementptr inbounds nuw i8, ptr %0, i64 44
  %30 = load i32, ptr %29, align 4, !tbaa !51
  %31 = icmp sgt i32 %30, 0
  br i1 %31, label %32, label %35

32:                                               ; preds = %28
  %33 = call i32 @setsockopt(i32 noundef %1, i32 noundef 1, i32 noundef 8, ptr noundef nonnull %29, i32 noundef 4) #12
  %.not51 = icmp eq i32 %33, 0
  br i1 %.not51, label %35, label %34

34:                                               ; preds = %32
  call void @ff_log_net_error(ptr noundef nonnull %0, i32 noundef 24, ptr noundef nonnull @.str.12) #12
  br label %35

35:                                               ; preds = %32, %34, %28
  %36 = getelementptr inbounds nuw i8, ptr %0, i64 48
  %37 = load i32, ptr %36, align 8, !tbaa !52
  %38 = icmp sgt i32 %37, 0
  br i1 %38, label %39, label %42

39:                                               ; preds = %35
  %40 = call i32 @setsockopt(i32 noundef %1, i32 noundef 1, i32 noundef 7, ptr noundef nonnull %36, i32 noundef 4) #12
  %.not52 = icmp eq i32 %40, 0
  br i1 %.not52, label %42, label %41

41:                                               ; preds = %39
  call void @ff_log_net_error(ptr noundef nonnull %0, i32 noundef 24, ptr noundef nonnull @.str.13) #12
  br label %42

42:                                               ; preds = %39, %41, %35
  %43 = getelementptr inbounds nuw i8, ptr %0, i64 52
  %44 = load i32, ptr %43, align 4, !tbaa !23
  %45 = icmp sgt i32 %44, 0
  br i1 %45, label %46, label %49

46:                                               ; preds = %42
  %47 = call i32 @setsockopt(i32 noundef %1, i32 noundef 6, i32 noundef 1, ptr noundef nonnull %43, i32 noundef 4) #12
  %.not53 = icmp eq i32 %47, 0
  br i1 %.not53, label %49, label %48

48:                                               ; preds = %46
  call void @ff_log_net_error(ptr noundef nonnull %0, i32 noundef 24, ptr noundef nonnull @.str.14) #12
  br label %49

49:                                               ; preds = %46, %48, %42
  %50 = getelementptr inbounds nuw i8, ptr %0, i64 56
  %51 = load i32, ptr %50, align 8, !tbaa !53
  %52 = icmp sgt i32 %51, 0
  br i1 %52, label %53, label %56

53:                                               ; preds = %49
  %54 = call i32 @setsockopt(i32 noundef %1, i32 noundef 6, i32 noundef 2, ptr noundef nonnull %50, i32 noundef 4) #12
  %.not54 = icmp eq i32 %54, 0
  br i1 %.not54, label %56, label %55

55:                                               ; preds = %53
  call void @ff_log_net_error(ptr noundef nonnull %0, i32 noundef 24, ptr noundef nonnull @.str.15) #12
  br label %56

56:                                               ; preds = %27, %49, %55, %53
  %.141 = phi i32 [ %.040, %27 ], [ 0, %53 ], [ 0, %55 ], [ 0, %49 ]
  ret i32 %.141
}